target datalayout = "e-m:e-p270:32:32-p271:32:32-p272:64:64-i64:64-i128:128-f80:128-n8:16:32:64-S128"
target triple = "x86_64-pc-linux-gnu"

%"struct.cv::line_descriptor::BinaryDescriptor::Params" = type { i32, i32, i32, i32 }
%"class.cv::FileNode" = type { ptr, i64, i64 }

@.str = private unnamed_addr constant [13 x i8] c"numOfOctave_\00", align 1
@.str.1 = private unnamed_addr constant [13 x i8] c"widthOfBand_\00", align 1
@.str.2 = private unnamed_addr constant [15 x i8] c"reductionRatio\00", align 1

; Function Attrs: mustprogress uwtable
define void @_ZN2cv15line_descriptor16BinaryDescriptor6Params4readERKNS_8FileNodeE(ptr noundef nonnull align 4 dereferenceable(16) %0, ptr noundef nonnull align 8 dereferenceable(24) %1) #5 align 2 {
  %3 = alloca ptr, align 8
  %4 = alloca ptr, align 8
  %5 = alloca %"class.cv::FileNode", align 8
  %6 = alloca %"class.cv::FileNode", align 8
  %7 = alloca %"class.cv::FileNode", align 8
  store ptr %0, ptr %3, align 8
  store ptr %1, ptr %4, align 8
  %8 = load ptr, ptr %3, align 8
  %9 = load ptr, ptr %4, align 8
  call void @_ZNK2cv8FileNodeixEPKc(ptr dead_on_unwind writable sret(%"class.cv::FileNode") align 8 %5, ptr noundef nonnull align 8 dereferenceable(24) %9, ptr noundef @.str)
  %10 = call noundef i32 @_ZNK2cv8FileNodecviEv(ptr noundef nonnull align 8 dereferenceable(24) %5)
  %11 = getelementptr inbounds %"struct.cv::line_descriptor::BinaryDescriptor::Params", ptr %8, i32 0, i32 0
  store i32 %10, ptr %11, align 4
  %12 = load ptr, ptr %4, align 8
  call void @_ZNK2cv8FileNodeixEPKc(ptr dead_on_unwind writable sret(%"class.cv::FileNode") align 8 %6, ptr noundef nonnull align 8 dereferenceable(24) %12, ptr noundef @.str.1)
  %13 = call noundef i32 @_ZNK2cv8FileNodecviEv(ptr noundef nonnull align 8 dereferenceable(24) %6)
  %14 = getelementptr inbounds %"struct.cv::line_descriptor::BinaryDescriptor::Params", ptr %8, i32 0, i32 1
  store i32 %13, ptr %14, align 4
  %15 = load ptr, ptr %4, align 8
  call void @_ZNK2cv8FileNodeixEPKc(ptr dead_on_unwind writable sret(%"class.cv::FileNode") align 8 %7, ptr noundef nonnull align 8 dereferenceable(24) %15, ptr noundef @.str.2)
  %16 = call noundef i32 @_ZNK2cv8FileNodecviEv(ptr noundef nonnull align 8 dereferenceable(24) %7)
  %17 = getelementptr inbounds %"struct.cv::line_descriptor::BinaryDescriptor::Params", ptr %8, i32 0, i32 2
  store i32 %16, ptr %17, align 4
  ret void
}